; Function Attrs: nounwind uwtable
define internal ptr @func_get_kwdefaults(ptr noundef %0, ptr readnone captures(none) %1) #0 {
  %3 = tail call i32 (ptr, ptr, ...) @PySys_Audit(ptr noundef nonnull @.str.35, ptr noundef nonnull @.str.36, ptr noundef %0, ptr noundef nonnull @.str.28) #8
  %4 = icmp slt i32 %3, 0
  br i1 %4, label %_Py_NewRef.exit, label %5

5:                                                ; preds = %2
  %6 = getelementptr inbounds nuw i8, ptr %0, i64 64
  %7 = load ptr, ptr %6, align 8, !tbaa !113
  %8 = icmp eq ptr %7, null
  br i1 %8, label %_Py_NewRef.exit, label %9

9:                                                ; preds = %5
  %10 = load i32, ptr %7, align 8, !tbaa !99
  %11 = icmp slt i32 %10, 0
  br i1 %11, label %_Py_NewRef.exit, label %12

12:                                               ; preds = %9
  %13 = add nuw i32 %10, 1
  store i32 %13, ptr %7, align 8, !tbaa !99
  br label %_Py_NewRef.exit

_Py_NewRef.exit:                                  ; preds = %12, %9, %5, %2
  %.0 = phi ptr [ null, %2 ], [ @_Py_NoneStruct, %5 ], [ %7, %9 ], [ %7, %12 ]
  ret ptr %.0
}